target datalayout = "e-m:e-p270:32:32-p271:32:32-p272:64:64-i64:64-i128:128-f80:128-n8:16:32:64-S128"
target triple = "x86_64-unknown-linux-gnu"

%"class.v8::Maybe.324" = type { i8, i32 }

; Function Attrs: mustprogress nounwind uwtable
define internal noundef zeroext i1 @_ZN4node6crypto12_GLOBAL__N_115ApplyRSAOptionsERKNS0_14ManagedEVPPKeyEP15evp_pkey_ctx_stiRKN2v85MaybeIiEE(ptr noundef nonnull align 8 dereferenceable(32) %pkey, ptr noundef %pkctx, i32 noundef %padding, ptr noundef nonnull align 4 dereferenceable(8) %salt_len) #4 {
entry:
  %this.addr.i.i = alloca ptr, align 8
  %this.addr.i22 = alloca ptr, align 8
  %this.addr.i = alloca ptr, align 8
  %retval = alloca i1, align 1
  %pkey.addr = alloca ptr, align 8
  %pkctx.addr = alloca ptr, align 8
  %padding.addr = alloca i32, align 4
  %salt_len.addr = alloca ptr, align 8
  store ptr %pkey, ptr %pkey.addr, align 8
  store ptr %pkctx, ptr %pkctx.addr, align 8
  store i32 %padding, ptr %padding.addr, align 4
  store ptr %salt_len, ptr %salt_len.addr, align 8
  %0 = load ptr, ptr %pkey.addr, align 8
  %call = call noundef ptr @_ZNK4node6crypto14ManagedEVPPKey3getEv(ptr noundef nonnull align 8 dereferenceable(32) %0)
  %call1 = call i32 @EVP_PKEY_get_id(ptr noundef %call)
  %cmp = icmp eq i32 %call1, 6
  br i1 %cmp, label %if.then, label %lor.lhs.false

lor.lhs.false:                                    ; preds = %entry
  %1 = load ptr, ptr %pkey.addr, align 8
  %call2 = call noundef ptr @_ZNK4node6crypto14ManagedEVPPKey3getEv(ptr noundef nonnull align 8 dereferenceable(32) %1)
  %call3 = call i32 @EVP_PKEY_get_id(ptr noundef %call2)
  %cmp4 = icmp eq i32 %call3, 19
  br i1 %cmp4, label %if.then, label %lor.lhs.false5

lor.lhs.false5:                                   ; preds = %lor.lhs.false
  %2 = load ptr, ptr %pkey.addr, align 8
  %call6 = call noundef ptr @_ZNK4node6crypto14ManagedEVPPKey3getEv(ptr noundef nonnull align 8 dereferenceable(32) %2)
  %call7 = call i32 @EVP_PKEY_get_id(ptr noundef %call6)
  %cmp8 = icmp eq i32 %call7, 912
  br i1 %cmp8, label %if.then, label %if.end21

if.then:                                          ; preds = %lor.lhs.false5, %lor.lhs.false, %entry
  %3 = load ptr, ptr %pkctx.addr, align 8
  %4 = load i32, ptr %padding.addr, align 4
  %call9 = call i32 @EVP_PKEY_CTX_set_rsa_padding(ptr noundef %3, i32 noundef %4)
  %cmp10 = icmp sle i32 %call9, 0
  br i1 %cmp10, label %if.then11, label %if.end

if.then11:                                        ; preds = %if.then
  store i1 false, ptr %retval, align 1
  br label %return

if.end:                                           ; preds = %if.then
  %5 = load i32, ptr %padding.addr, align 4
  %cmp12 = icmp eq i32 %5, 6
  br i1 %cmp12, label %land.lhs.true, label %if.end20

land.lhs.true:                                    ; preds = %if.end
  %6 = load ptr, ptr %salt_len.addr, align 8
  store ptr %6, ptr %this.addr.i, align 8
  %this1.i = load ptr, ptr %this.addr.i, align 8
  %7 = load i8, ptr %this1.i, align 4
  %tobool.i = trunc i8 %7 to i1
  br i1 %tobool.i, label %if.then14, label %if.end20

if.then14:                                        ; preds = %land.lhs.true
  %8 = load ptr, ptr %pkctx.addr, align 8
  %9 = load ptr, ptr %salt_len.addr, align 8
  store ptr %9, ptr %this.addr.i22, align 8
  %this1.i23 = load ptr, ptr %this.addr.i22, align 8
  store ptr %this1.i23, ptr %this.addr.i.i, align 8
  %this1.i.i = load ptr, ptr %this.addr.i.i, align 8
  %10 = load i8, ptr %this1.i.i, align 4
  %tobool.i.i = trunc i8 %10 to i1
  %lnot3.i = xor i1 %tobool.i.i, true
  br i1 %lnot3.i, label %if.then.i, label %_ZNKR2v85MaybeIiE8FromJustEv.exit

if.then.i:                                        ; preds = %if.then14
  call void @_ZN2v812api_internal17FromJustIsNothingEv() #3
  br label %_ZNKR2v85MaybeIiE8FromJustEv.exit

_ZNKR2v85MaybeIiE8FromJustEv.exit:                ; preds = %if.then.i, %if.then14
  %value_.i = getelementptr inbounds %"class.v8::Maybe.324", ptr %this1.i23, i32 0, i32 1
  %11 = load i32, ptr %value_.i, align 4
  %call16 = call i32 @EVP_PKEY_CTX_set_rsa_pss_saltlen(ptr noundef %8, i32 noundef %11)
  %cmp17 = icmp sle i32 %call16, 0
  br i1 %cmp17, label %if.then18, label %if.end19

if.then18:                                        ; preds = %_ZNKR2v85MaybeIiE8FromJustEv.exit
  store i1 false, ptr %retval, align 1
  br label %return

if.end19:                                         ; preds = %_ZNKR2v85MaybeIiE8FromJustEv.exit
  br label %if.end20

if.end20:                                         ; preds = %if.end19, %land.lhs.true, %if.end
  br label %if.end21

if.end21:                                         ; preds = %if.end20, %lor.lhs.false5
  store i1 true, ptr %retval, align 1
  br label %return

return:                                           ; preds = %if.end21, %if.then18, %if.then11
  %12 = load i1, ptr %retval, align 1
  ret i1 %12
}