; Function Attrs: mustprogress nounwind uwtable
define internal fastcc noundef zeroext i1 @_ZN4node6crypto12_GLOBAL__N_115ApplyRSAOptionsERKNS0_14ManagedEVPPKeyEP15evp_pkey_ctx_stiRKN2v85MaybeIiEE(ptr noundef nonnull align 8 dereferenceable(32) %pkey, ptr noundef %pkctx, i32 noundef %padding, ptr nocapture noundef nonnull readonly align 4 dereferenceable(8) %salt_len) unnamed_addr #3 {
entry:
  %call = tail call noundef ptr @_ZNK4node6crypto14ManagedEVPPKey3getEv(ptr noundef nonnull align 8 dereferenceable(32) %pkey) #21
  %call1 = tail call i32 @EVP_PKEY_get_id(ptr noundef %call) #21
  %cmp = icmp eq i32 %call1, 6
  br i1 %cmp, label %if.then, label %lor.lhs.false

lor.lhs.false:                                    ; preds = %entry
  %call2 = tail call noundef ptr @_ZNK4node6crypto14ManagedEVPPKey3getEv(ptr noundef nonnull align 8 dereferenceable(32) %pkey) #21
  %call3 = tail call i32 @EVP_PKEY_get_id(ptr noundef %call2) #21
  %cmp4 = icmp eq i32 %call3, 19
  br i1 %cmp4, label %if.then, label %lor.lhs.false5

lor.lhs.false5:                                   ; preds = %lor.lhs.false
  %call6 = tail call noundef ptr @_ZNK4node6crypto14ManagedEVPPKey3getEv(ptr noundef nonnull align 8 dereferenceable(32) %pkey) #21
  %call7 = tail call i32 @EVP_PKEY_get_id(ptr noundef %call6) #21
  %cmp8 = icmp eq i32 %call7, 912
  br i1 %cmp8, label %if.then, label %if.end21

if.then:                                          ; preds = %lor.lhs.false5, %lor.lhs.false, %entry
  %call9 = tail call i32 @EVP_PKEY_CTX_set_rsa_padding(ptr noundef %pkctx, i32 noundef %padding) #21
  %cmp10 = icmp slt i32 %call9, 1
  br i1 %cmp10, label %return, label %if.end

if.end:                                           ; preds = %if.then
  %cmp12 = icmp eq i32 %padding, 6
  br i1 %cmp12, label %land.lhs.true, label %if.end21

land.lhs.true:                                    ; preds = %if.end
  %0 = load i8, ptr %salt_len, align 4
  %1 = and i8 %0, 1
  %tobool.i.not = icmp eq i8 %1, 0
  br i1 %tobool.i.not, label %if.end21, label %_ZNKR2v85MaybeIiE8FromJustEv.exit

_ZNKR2v85MaybeIiE8FromJustEv.exit:                ; preds = %land.lhs.true
  %value_.i = getelementptr inbounds i8, ptr %salt_len, i64 4
  %2 = load i32, ptr %value_.i, align 4
  %call16 = tail call i32 @EVP_PKEY_CTX_set_rsa_pss_saltlen(ptr noundef %pkctx, i32 noundef %2) #21
  %cmp17 = icmp slt i32 %call16, 1
  br i1 %cmp17, label %return, label %if.end21

if.end21:                                         ; preds = %if.end, %land.lhs.true, %_ZNKR2v85MaybeIiE8FromJustEv.exit, %lor.lhs.false5
  br label %return

return:                                           ; preds = %_ZNKR2v85MaybeIiE8FromJustEv.exit, %if.then, %if.end21
  %retval.0 = phi i1 [ true, %if.end21 ], [ false, %if.then ], [ false, %_ZNKR2v85MaybeIiE8FromJustEv.exit ]
  ret i1 %retval.0
}